
user/_forktest:     file format elf64-littleriscv


Disassembly of section .text:

0000000000000000 <print>:

#define N  1000

void
print(const char *s)
{
   0:	1101                	addi	sp,sp,-32
   2:	ec06                	sd	ra,24(sp)
   4:	e822                	sd	s0,16(sp)
   6:	e426                	sd	s1,8(sp)
   8:	1000                	addi	s0,sp,32
   a:	84aa                	mv	s1,a0
  write(1, s, strlen(s));
   c:	00000097          	auipc	ra,0x0
  10:	174080e7          	jalr	372(ra) # 180 <strlen>
  14:	0005061b          	sext.w	a2,a0
  18:	85a6                	mv	a1,s1
  1a:	4505                	li	a0,1
  1c:	00000097          	auipc	ra,0x0
  20:	4dc080e7          	jalr	1244(ra) # 4f8 <write>
}
  24:	60e2                	ld	ra,24(sp)
  26:	6442                	ld	s0,16(sp)
  28:	64a2                	ld	s1,8(sp)
  2a:	6105                	addi	sp,sp,32
  2c:	8082                	ret

000000000000002e <forktest>:

void
forktest(void)
{
  2e:	1101                	addi	sp,sp,-32
  30:	ec06                	sd	ra,24(sp)
  32:	e822                	sd	s0,16(sp)
  34:	e426                	sd	s1,8(sp)
  36:	e04a                	sd	s2,0(sp)
  38:	1000                	addi	s0,sp,32
  int n, pid;

  print("fork test\n");
  3a:	00000517          	auipc	a0,0x0
  3e:	56e50513          	addi	a0,a0,1390 # 5a8 <setpri+0x8>
  42:	00000097          	auipc	ra,0x0
  46:	fbe080e7          	jalr	-66(ra) # 0 <print>

  for(n=0; n<N; n++){
  4a:	4481                	li	s1,0
  4c:	3e800913          	li	s2,1000
    pid = fork();
  50:	00000097          	auipc	ra,0x0
  54:	480080e7          	jalr	1152(ra) # 4d0 <fork>
    if(pid < 0)
  58:	02054763          	bltz	a0,86 <forktest+0x58>
      break;
    if(pid == 0)
  5c:	c10d                	beqz	a0,7e <forktest+0x50>
  for(n=0; n<N; n++){
  5e:	2485                	addiw	s1,s1,1
  60:	ff2498e3          	bne	s1,s2,50 <forktest+0x22>
      exit(0);
  }

  if(n == N){
    print("fork claimed to work N times!\n");
  64:	00000517          	auipc	a0,0x0
  68:	55450513          	addi	a0,a0,1364 # 5b8 <setpri+0x18>
  6c:	00000097          	auipc	ra,0x0
  70:	f94080e7          	jalr	-108(ra) # 0 <print>
    exit(1);
  74:	4505                	li	a0,1
  76:	00000097          	auipc	ra,0x0
  7a:	462080e7          	jalr	1122(ra) # 4d8 <exit>
      exit(0);
  7e:	00000097          	auipc	ra,0x0
  82:	45a080e7          	jalr	1114(ra) # 4d8 <exit>
  if(n == N){
  86:	3e800793          	li	a5,1000
  8a:	fcf48de3          	beq	s1,a5,64 <forktest+0x36>
  }

  for(; n > 0; n--){
  8e:	00905b63          	blez	s1,a4 <forktest+0x76>
    if(wait(0) < 0){
  92:	4501                	li	a0,0
  94:	00000097          	auipc	ra,0x0
  98:	44c080e7          	jalr	1100(ra) # 4e0 <wait>
  9c:	02054a63          	bltz	a0,d0 <forktest+0xa2>
  for(; n > 0; n--){
  a0:	34fd                	addiw	s1,s1,-1
  a2:	f8e5                	bnez	s1,92 <forktest+0x64>
      print("wait stopped early\n");
      exit(1);
    }
  }

  if(wait(0) != -1){
  a4:	4501                	li	a0,0
  a6:	00000097          	auipc	ra,0x0
  aa:	43a080e7          	jalr	1082(ra) # 4e0 <wait>
  ae:	57fd                	li	a5,-1
  b0:	02f51d63          	bne	a0,a5,ea <forktest+0xbc>
    print("wait got too many\n");
    exit(1);
  }

  print("fork test OK\n");
  b4:	00000517          	auipc	a0,0x0
  b8:	55450513          	addi	a0,a0,1364 # 608 <setpri+0x68>
  bc:	00000097          	auipc	ra,0x0
  c0:	f44080e7          	jalr	-188(ra) # 0 <print>
}
  c4:	60e2                	ld	ra,24(sp)
  c6:	6442                	ld	s0,16(sp)
  c8:	64a2                	ld	s1,8(sp)
  ca:	6902                	ld	s2,0(sp)
  cc:	6105                	addi	sp,sp,32
  ce:	8082                	ret
      print("wait stopped early\n");
  d0:	00000517          	auipc	a0,0x0
  d4:	50850513          	addi	a0,a0,1288 # 5d8 <setpri+0x38>
  d8:	00000097          	auipc	ra,0x0
  dc:	f28080e7          	jalr	-216(ra) # 0 <print>
      exit(1);
  e0:	4505                	li	a0,1
  e2:	00000097          	auipc	ra,0x0
  e6:	3f6080e7          	jalr	1014(ra) # 4d8 <exit>
    print("wait got too many\n");
  ea:	00000517          	auipc	a0,0x0
  ee:	50650513          	addi	a0,a0,1286 # 5f0 <setpri+0x50>
  f2:	00000097          	auipc	ra,0x0
  f6:	f0e080e7          	jalr	-242(ra) # 0 <print>
    exit(1);
  fa:	4505                	li	a0,1
  fc:	00000097          	auipc	ra,0x0
 100:	3dc080e7          	jalr	988(ra) # 4d8 <exit>

0000000000000104 <main>:

int
main(void)
{
 104:	1141                	addi	sp,sp,-16
 106:	e406                	sd	ra,8(sp)
 108:	e022                	sd	s0,0(sp)
 10a:	0800                	addi	s0,sp,16
  forktest();
 10c:	00000097          	auipc	ra,0x0
 110:	f22080e7          	jalr	-222(ra) # 2e <forktest>
  exit(0);
 114:	4501                	li	a0,0
 116:	00000097          	auipc	ra,0x0
 11a:	3c2080e7          	jalr	962(ra) # 4d8 <exit>

000000000000011e <_main>:
//
// wrapper so that it's OK if main() does not call exit().
//
void
_main()
{
 11e:	1141                	addi	sp,sp,-16
 120:	e406                	sd	ra,8(sp)
 122:	e022                	sd	s0,0(sp)
 124:	0800                	addi	s0,sp,16
  extern int main();
  main();
 126:	00000097          	auipc	ra,0x0
 12a:	fde080e7          	jalr	-34(ra) # 104 <main>
  exit(0);
 12e:	4501                	li	a0,0
 130:	00000097          	auipc	ra,0x0
 134:	3a8080e7          	jalr	936(ra) # 4d8 <exit>

0000000000000138 <strcpy>:
}

char*
strcpy(char *s, const char *t)
{
 138:	1141                	addi	sp,sp,-16
 13a:	e422                	sd	s0,8(sp)
 13c:	0800                	addi	s0,sp,16
  char *os;

  os = s;
  while((*s++ = *t++) != 0)
 13e:	87aa                	mv	a5,a0
 140:	0585                	addi	a1,a1,1
 142:	0785                	addi	a5,a5,1
 144:	fff5c703          	lbu	a4,-1(a1)
 148:	fee78fa3          	sb	a4,-1(a5)
 14c:	fb75                	bnez	a4,140 <strcpy+0x8>
    ;
  return os;
}
 14e:	6422                	ld	s0,8(sp)
 150:	0141                	addi	sp,sp,16
 152:	8082                	ret

0000000000000154 <strcmp>:

int
strcmp(const char *p, const char *q)
{
 154:	1141                	addi	sp,sp,-16
 156:	e422                	sd	s0,8(sp)
 158:	0800                	addi	s0,sp,16
  while(*p && *p == *q)
 15a:	00054783          	lbu	a5,0(a0)
 15e:	cb91                	beqz	a5,172 <strcmp+0x1e>
 160:	0005c703          	lbu	a4,0(a1)
 164:	00f71763          	bne	a4,a5,172 <strcmp+0x1e>
    p++, q++;
 168:	0505                	addi	a0,a0,1
 16a:	0585                	addi	a1,a1,1
  while(*p && *p == *q)
 16c:	00054783          	lbu	a5,0(a0)
 170:	fbe5                	bnez	a5,160 <strcmp+0xc>
  return (uchar)*p - (uchar)*q;
 172:	0005c503          	lbu	a0,0(a1)
}
 176:	40a7853b          	subw	a0,a5,a0
 17a:	6422                	ld	s0,8(sp)
 17c:	0141                	addi	sp,sp,16
 17e:	8082                	ret

0000000000000180 <strlen>:

uint
strlen(const char *s)
{
 180:	1141                	addi	sp,sp,-16
 182:	e422                	sd	s0,8(sp)
 184:	0800                	addi	s0,sp,16
  int n;

  for(n = 0; s[n]; n++)
 186:	00054783          	lbu	a5,0(a0)
 18a:	cf91                	beqz	a5,1a6 <strlen+0x26>
 18c:	0505                	addi	a0,a0,1
 18e:	87aa                	mv	a5,a0
 190:	86be                	mv	a3,a5
 192:	0785                	addi	a5,a5,1
 194:	fff7c703          	lbu	a4,-1(a5)
 198:	ff65                	bnez	a4,190 <strlen+0x10>
 19a:	40a6853b          	subw	a0,a3,a0
 19e:	2505                	addiw	a0,a0,1
    ;
  return n;
}
 1a0:	6422                	ld	s0,8(sp)
 1a2:	0141                	addi	sp,sp,16
 1a4:	8082                	ret
  for(n = 0; s[n]; n++)
 1a6:	4501                	li	a0,0
 1a8:	bfe5                	j	1a0 <strlen+0x20>

00000000000001aa <memset>:

void*
memset(void *dst, int c, uint n)
{
 1aa:	1141                	addi	sp,sp,-16
 1ac:	e422                	sd	s0,8(sp)
 1ae:	0800                	addi	s0,sp,16
  char *cdst = (char *) dst;
  int i;
  for(i = 0; i < n; i++){
 1b0:	ca19                	beqz	a2,1c6 <memset+0x1c>
 1b2:	87aa                	mv	a5,a0
 1b4:	1602                	slli	a2,a2,0x20
 1b6:	9201                	srli	a2,a2,0x20
 1b8:	00a60733          	add	a4,a2,a0
    cdst[i] = c;
 1bc:	00b78023          	sb	a1,0(a5)
  for(i = 0; i < n; i++){
 1c0:	0785                	addi	a5,a5,1
 1c2:	fee79de3          	bne	a5,a4,1bc <memset+0x12>
  }
  return dst;
}
 1c6:	6422                	ld	s0,8(sp)
 1c8:	0141                	addi	sp,sp,16
 1ca:	8082                	ret

00000000000001cc <strchr>:

char*
strchr(const char *s, char c)
{
 1cc:	1141                	addi	sp,sp,-16
 1ce:	e422                	sd	s0,8(sp)
 1d0:	0800                	addi	s0,sp,16
  for(; *s; s++)
 1d2:	00054783          	lbu	a5,0(a0)
 1d6:	cb99                	beqz	a5,1ec <strchr+0x20>
    if(*s == c)
 1d8:	00f58763          	beq	a1,a5,1e6 <strchr+0x1a>
  for(; *s; s++)
 1dc:	0505                	addi	a0,a0,1
 1de:	00054783          	lbu	a5,0(a0)
 1e2:	fbfd                	bnez	a5,1d8 <strchr+0xc>
      return (char*)s;
  return 0;
 1e4:	4501                	li	a0,0
}
 1e6:	6422                	ld	s0,8(sp)
 1e8:	0141                	addi	sp,sp,16
 1ea:	8082                	ret
  return 0;
 1ec:	4501                	li	a0,0
 1ee:	bfe5                	j	1e6 <strchr+0x1a>

00000000000001f0 <gets>:

char*
gets(char *buf, int max)
{
 1f0:	711d                	addi	sp,sp,-96
 1f2:	ec86                	sd	ra,88(sp)
 1f4:	e8a2                	sd	s0,80(sp)
 1f6:	e4a6                	sd	s1,72(sp)
 1f8:	e0ca                	sd	s2,64(sp)
 1fa:	fc4e                	sd	s3,56(sp)
 1fc:	f852                	sd	s4,48(sp)
 1fe:	f456                	sd	s5,40(sp)
 200:	f05a                	sd	s6,32(sp)
 202:	ec5e                	sd	s7,24(sp)
 204:	1080                	addi	s0,sp,96
 206:	8baa                	mv	s7,a0
 208:	8a2e                	mv	s4,a1
  int i, cc;
  char c;

  for(i=0; i+1 < max; ){
 20a:	892a                	mv	s2,a0
 20c:	4481                	li	s1,0
    cc = read(0, &c, 1);
    if(cc < 1)
      break;
    buf[i++] = c;
    if(c == '\n' || c == '\r')
 20e:	4aa9                	li	s5,10
 210:	4b35                	li	s6,13
  for(i=0; i+1 < max; ){
 212:	89a6                	mv	s3,s1
 214:	2485                	addiw	s1,s1,1
 216:	0344d863          	bge	s1,s4,246 <gets+0x56>
    cc = read(0, &c, 1);
 21a:	4605                	li	a2,1
 21c:	faf40593          	addi	a1,s0,-81
 220:	4501                	li	a0,0
 222:	00000097          	auipc	ra,0x0
 226:	2ce080e7          	jalr	718(ra) # 4f0 <read>
    if(cc < 1)
 22a:	00a05e63          	blez	a0,246 <gets+0x56>
    buf[i++] = c;
 22e:	faf44783          	lbu	a5,-81(s0)
 232:	00f90023          	sb	a5,0(s2)
    if(c == '\n' || c == '\r')
 236:	01578763          	beq	a5,s5,244 <gets+0x54>
 23a:	0905                	addi	s2,s2,1
 23c:	fd679be3          	bne	a5,s6,212 <gets+0x22>
  for(i=0; i+1 < max; ){
 240:	89a6                	mv	s3,s1
 242:	a011                	j	246 <gets+0x56>
 244:	89a6                	mv	s3,s1
      break;
  }
  buf[i] = '\0';
 246:	99de                	add	s3,s3,s7
 248:	00098023          	sb	zero,0(s3)
  return buf;
}
 24c:	855e                	mv	a0,s7
 24e:	60e6                	ld	ra,88(sp)
 250:	6446                	ld	s0,80(sp)
 252:	64a6                	ld	s1,72(sp)
 254:	6906                	ld	s2,64(sp)
 256:	79e2                	ld	s3,56(sp)
 258:	7a42                	ld	s4,48(sp)
 25a:	7aa2                	ld	s5,40(sp)
 25c:	7b02                	ld	s6,32(sp)
 25e:	6be2                	ld	s7,24(sp)
 260:	6125                	addi	sp,sp,96
 262:	8082                	ret

0000000000000264 <stat>:

int
stat(const char *n, struct stat *st)
{
 264:	1101                	addi	sp,sp,-32
 266:	ec06                	sd	ra,24(sp)
 268:	e822                	sd	s0,16(sp)
 26a:	e426                	sd	s1,8(sp)
 26c:	e04a                	sd	s2,0(sp)
 26e:	1000                	addi	s0,sp,32
 270:	892e                	mv	s2,a1
  int fd;
  int r;

  fd = open(n, O_RDONLY);
 272:	4581                	li	a1,0
 274:	00000097          	auipc	ra,0x0
 278:	2a4080e7          	jalr	676(ra) # 518 <open>
  if(fd < 0)
 27c:	02054563          	bltz	a0,2a6 <stat+0x42>
 280:	84aa                	mv	s1,a0
    return -1;
  r = fstat(fd, st);
 282:	85ca                	mv	a1,s2
 284:	00000097          	auipc	ra,0x0
 288:	2ac080e7          	jalr	684(ra) # 530 <fstat>
 28c:	892a                	mv	s2,a0
  close(fd);
 28e:	8526                	mv	a0,s1
 290:	00000097          	auipc	ra,0x0
 294:	270080e7          	jalr	624(ra) # 500 <close>
  return r;
}
 298:	854a                	mv	a0,s2
 29a:	60e2                	ld	ra,24(sp)
 29c:	6442                	ld	s0,16(sp)
 29e:	64a2                	ld	s1,8(sp)
 2a0:	6902                	ld	s2,0(sp)
 2a2:	6105                	addi	sp,sp,32
 2a4:	8082                	ret
    return -1;
 2a6:	597d                	li	s2,-1
 2a8:	bfc5                	j	298 <stat+0x34>

00000000000002aa <atoi>:

int
atoi(const char *s)
{
 2aa:	1141                	addi	sp,sp,-16
 2ac:	e422                	sd	s0,8(sp)
 2ae:	0800                	addi	s0,sp,16
  int n;
  n = 0;
  while('0' <= *s && *s <= '9')
 2b0:	00054683          	lbu	a3,0(a0)
 2b4:	fd06879b          	addiw	a5,a3,-48
 2b8:	0ff7f793          	zext.b	a5,a5
 2bc:	4625                	li	a2,9
 2be:	02f66863          	bltu	a2,a5,2ee <atoi+0x44>
 2c2:	872a                	mv	a4,a0
  n = 0;
 2c4:	4501                	li	a0,0
    n = n*10 + *s++ - '0';
 2c6:	0705                	addi	a4,a4,1
 2c8:	0025179b          	slliw	a5,a0,0x2
 2cc:	9fa9                	addw	a5,a5,a0
 2ce:	0017979b          	slliw	a5,a5,0x1
 2d2:	9fb5                	addw	a5,a5,a3
 2d4:	fd07851b          	addiw	a0,a5,-48
  while('0' <= *s && *s <= '9')
 2d8:	00074683          	lbu	a3,0(a4)
 2dc:	fd06879b          	addiw	a5,a3,-48
 2e0:	0ff7f793          	zext.b	a5,a5
 2e4:	fef671e3          	bgeu	a2,a5,2c6 <atoi+0x1c>

  return n;
}
 2e8:	6422                	ld	s0,8(sp)
 2ea:	0141                	addi	sp,sp,16
 2ec:	8082                	ret
  n = 0;
 2ee:	4501                	li	a0,0
 2f0:	bfe5                	j	2e8 <atoi+0x3e>

00000000000002f2 <strtoi>:
}

// Added by me
int
strtoi(const char *strt, const char** end, int base)
{
 2f2:	1141                	addi	sp,sp,-16
 2f4:	e422                	sd	s0,8(sp)
 2f6:	0800                	addi	s0,sp,16
 2f8:	8eaa                	mv	t4,a0
    register const char *s = strt;
 2fa:	87aa                	mv	a5,a0
    register unsigned int cutoff;
    register int neg = 0, any, cutlim;

    do {
        c = *s++;
    } while (ISSPACE(c));
 2fc:	02000693          	li	a3,32
        c = *s++;
 300:	883e                	mv	a6,a5
 302:	0785                	addi	a5,a5,1
 304:	fff7c703          	lbu	a4,-1(a5)
    } while (ISSPACE(c));
 308:	fed70ce3          	beq	a4,a3,300 <strtoi+0xe>
        c = *s++;
 30c:	2701                	sext.w	a4,a4

    if (c == '-') {
 30e:	02d00693          	li	a3,45
 312:	04d70d63          	beq	a4,a3,36c <strtoi+0x7a>
        neg = 1;
        c = *s++;
    } else if (c == '+')
 316:	02b00693          	li	a3,43
    register int neg = 0, any, cutlim;
 31a:	4f01                	li	t5,0
    } else if (c == '+')
 31c:	04d70e63          	beq	a4,a3,378 <strtoi+0x86>
        c = *s++;
    if ((base == 0 || base == 16) &&
 320:	fef67693          	andi	a3,a2,-17
 324:	ea99                	bnez	a3,33a <strtoi+0x48>
 326:	03000693          	li	a3,48
 32a:	04d70c63          	beq	a4,a3,382 <strtoi+0x90>
        c == '0' && (*s == 'x' || *s == 'X')) {
        c = s[1];
        s += 2;
        base = 16;
    }
    if (base == 0)
 32e:	e611                	bnez	a2,33a <strtoi+0x48>
        base = c == '0' ? 8 : 10;
 330:	03000693          	li	a3,48
 334:	0cd70b63          	beq	a4,a3,40a <strtoi+0x118>
 338:	4629                	li	a2,10

    cutoff = neg ? -(unsigned int)-2147483648 : 2147483647;
 33a:	800008b7          	lui	a7,0x80000
 33e:	fff8c893          	not	a7,a7
 342:	011f08bb          	addw	a7,t5,a7
    cutlim = cutoff % (unsigned int)base;
 346:	02c8f2bb          	remuw	t0,a7,a2
    cutoff /= (unsigned long)base;
 34a:	1882                	slli	a7,a7,0x20
 34c:	0208d893          	srli	a7,a7,0x20
 350:	02c8d8b3          	divu	a7,a7,a2
 354:	00088e1b          	sext.w	t3,a7
    for (acc = 0, any = 0;; c = *s++) {
        if (ISDIGIT(c))
            c -= '0';
 358:	fd07071b          	addiw	a4,a4,-48
        else if (ISALPHA(c))
            c -= ISUPPER(c) ? 'A' - 10 : 'a' - 10;
        else
            break;
        if (c >= base)
 35c:	0ac75163          	bge	a4,a2,3fe <strtoi+0x10c>
        base = c == '0' ? 8 : 10;
 360:	4681                	li	a3,0
 362:	4501                	li	a0,0
            break;
        if (any < 0 || acc > cutoff || (acc == cutoff && c > cutlim))
            any = -1;
 364:	537d                	li	t1,-1
        if (any < 0 || acc > cutoff || (acc == cutoff && c > cutlim))
 366:	2881                	sext.w	a7,a7
        else {
            any = 1;
 368:	4f85                	li	t6,1
 36a:	a0a9                	j	3b4 <strtoi+0xc2>
        c = *s++;
 36c:	0007c703          	lbu	a4,0(a5)
 370:	00280793          	addi	a5,a6,2
        neg = 1;
 374:	4f05                	li	t5,1
 376:	b76d                	j	320 <strtoi+0x2e>
        c = *s++;
 378:	0007c703          	lbu	a4,0(a5)
 37c:	00280793          	addi	a5,a6,2
 380:	b745                	j	320 <strtoi+0x2e>
        c == '0' && (*s == 'x' || *s == 'X')) {
 382:	0007c683          	lbu	a3,0(a5)
 386:	0df6f693          	andi	a3,a3,223
 38a:	05800513          	li	a0,88
 38e:	faa690e3          	bne	a3,a0,32e <strtoi+0x3c>
        c = s[1];
 392:	0017c703          	lbu	a4,1(a5)
        s += 2;
 396:	0789                	addi	a5,a5,2
        base = 16;
 398:	4641                	li	a2,16
 39a:	b745                	j	33a <strtoi+0x48>
            any = -1;
 39c:	56fd                	li	a3,-1
        if (any < 0 || acc > cutoff || (acc == cutoff && c > cutlim))
 39e:	00e2c463          	blt	t0,a4,3a6 <strtoi+0xb4>
 3a2:	a015                	j	3c6 <strtoi+0xd4>
            any = -1;
 3a4:	869a                	mv	a3,t1
    for (acc = 0, any = 0;; c = *s++) {
 3a6:	0785                	addi	a5,a5,1
 3a8:	fff7c703          	lbu	a4,-1(a5)
            c -= '0';
 3ac:	fd07071b          	addiw	a4,a4,-48
        if (c >= base)
 3b0:	02c75063          	bge	a4,a2,3d0 <strtoi+0xde>
        if (any < 0 || acc > cutoff || (acc == cutoff && c > cutlim))
 3b4:	fe06c8e3          	bltz	a3,3a4 <strtoi+0xb2>
 3b8:	0005081b          	sext.w	a6,a0
            any = -1;
 3bc:	869a                	mv	a3,t1
        if (any < 0 || acc > cutoff || (acc == cutoff && c > cutlim))
 3be:	ff0e64e3          	bltu	t3,a6,3a6 <strtoi+0xb4>
 3c2:	fca88de3          	beq	a7,a0,39c <strtoi+0xaa>
            acc *= base;
 3c6:	02c5053b          	mulw	a0,a0,a2
            acc += c;
 3ca:	9d39                	addw	a0,a0,a4
            any = 1;
 3cc:	86fe                	mv	a3,t6
 3ce:	bfe1                	j	3a6 <strtoi+0xb4>
        }
    }
    if (any < 0) {
 3d0:	0006cd63          	bltz	a3,3ea <strtoi+0xf8>
        acc = neg ? -2147483648 : 2147483647;

    } else if (neg)
 3d4:	000f0463          	beqz	t5,3dc <strtoi+0xea>
        acc = -acc;
 3d8:	40a0053b          	negw	a0,a0
    if (end != 0)
 3dc:	c581                	beqz	a1,3e4 <strtoi+0xf2>
        *end = (char *) (any ? s - 1 : strt);
 3de:	ee89                	bnez	a3,3f8 <strtoi+0x106>
 3e0:	01d5b023          	sd	t4,0(a1)
    return (acc);
}
 3e4:	6422                	ld	s0,8(sp)
 3e6:	0141                	addi	sp,sp,16
 3e8:	8082                	ret
        acc = neg ? -2147483648 : 2147483647;
 3ea:	000f1d63          	bnez	t5,404 <strtoi+0x112>
 3ee:	80000537          	lui	a0,0x80000
 3f2:	fff54513          	not	a0,a0
    if (end != 0)
 3f6:	d5fd                	beqz	a1,3e4 <strtoi+0xf2>
        *end = (char *) (any ? s - 1 : strt);
 3f8:	fff78e93          	addi	t4,a5,-1
 3fc:	b7d5                	j	3e0 <strtoi+0xee>
    for (acc = 0, any = 0;; c = *s++) {
 3fe:	4681                	li	a3,0
 400:	4501                	li	a0,0
 402:	bfc9                	j	3d4 <strtoi+0xe2>
        acc = neg ? -2147483648 : 2147483647;
 404:	80000537          	lui	a0,0x80000
 408:	b7fd                	j	3f6 <strtoi+0x104>
    cutoff = neg ? -(unsigned int)-2147483648 : 2147483647;
 40a:	80000e37          	lui	t3,0x80000
 40e:	fffe4e13          	not	t3,t3
 412:	01cf0e3b          	addw	t3,t5,t3
    cutlim = cutoff % (unsigned int)base;
 416:	007e7293          	andi	t0,t3,7
    cutoff /= (unsigned long)base;
 41a:	003e589b          	srliw	a7,t3,0x3
 41e:	8e46                	mv	t3,a7
            c -= '0';
 420:	8732                	mv	a4,a2
        base = c == '0' ? 8 : 10;
 422:	4621                	li	a2,8
 424:	bf35                	j	360 <strtoi+0x6e>

0000000000000426 <memmove>:

void*
memmove(void *vdst, const void *vsrc, int n)
{
 426:	1141                	addi	sp,sp,-16
 428:	e422                	sd	s0,8(sp)
 42a:	0800                	addi	s0,sp,16
  char *dst;
  const char *src;

  dst = vdst;
  src = vsrc;
  if (src > dst) {
 42c:	02b57463          	bgeu	a0,a1,454 <memmove+0x2e>
    while(n-- > 0)
 430:	00c05f63          	blez	a2,44e <memmove+0x28>
 434:	1602                	slli	a2,a2,0x20
 436:	9201                	srli	a2,a2,0x20
 438:	00c507b3          	add	a5,a0,a2
  dst = vdst;
 43c:	872a                	mv	a4,a0
      *dst++ = *src++;
 43e:	0585                	addi	a1,a1,1
 440:	0705                	addi	a4,a4,1
 442:	fff5c683          	lbu	a3,-1(a1)
 446:	fed70fa3          	sb	a3,-1(a4)
    while(n-- > 0)
 44a:	fee79ae3          	bne	a5,a4,43e <memmove+0x18>
    src += n;
    while(n-- > 0)
      *--dst = *--src;
  }
  return vdst;
}
 44e:	6422                	ld	s0,8(sp)
 450:	0141                	addi	sp,sp,16
 452:	8082                	ret
    dst += n;
 454:	00c50733          	add	a4,a0,a2
    src += n;
 458:	95b2                	add	a1,a1,a2
    while(n-- > 0)
 45a:	fec05ae3          	blez	a2,44e <memmove+0x28>
 45e:	fff6079b          	addiw	a5,a2,-1
 462:	1782                	slli	a5,a5,0x20
 464:	9381                	srli	a5,a5,0x20
 466:	fff7c793          	not	a5,a5
 46a:	97ba                	add	a5,a5,a4
      *--dst = *--src;
 46c:	15fd                	addi	a1,a1,-1
 46e:	177d                	addi	a4,a4,-1
 470:	0005c683          	lbu	a3,0(a1)
 474:	00d70023          	sb	a3,0(a4)
    while(n-- > 0)
 478:	fee79ae3          	bne	a5,a4,46c <memmove+0x46>
 47c:	bfc9                	j	44e <memmove+0x28>

000000000000047e <memcmp>:

int
memcmp(const void *s1, const void *s2, uint n)
{
 47e:	1141                	addi	sp,sp,-16
 480:	e422                	sd	s0,8(sp)
 482:	0800                	addi	s0,sp,16
  const char *p1 = s1, *p2 = s2;
  while (n-- > 0) {
 484:	ca05                	beqz	a2,4b4 <memcmp+0x36>
 486:	fff6069b          	addiw	a3,a2,-1
 48a:	1682                	slli	a3,a3,0x20
 48c:	9281                	srli	a3,a3,0x20
 48e:	0685                	addi	a3,a3,1
 490:	96aa                	add	a3,a3,a0
    if (*p1 != *p2) {
 492:	00054783          	lbu	a5,0(a0) # ffffffff80000000 <__global_pointer$+0xffffffff7ffff1ea>
 496:	0005c703          	lbu	a4,0(a1)
 49a:	00e79863          	bne	a5,a4,4aa <memcmp+0x2c>
      return *p1 - *p2;
    }
    p1++;
 49e:	0505                	addi	a0,a0,1
    p2++;
 4a0:	0585                	addi	a1,a1,1
  while (n-- > 0) {
 4a2:	fed518e3          	bne	a0,a3,492 <memcmp+0x14>
  }
  return 0;
 4a6:	4501                	li	a0,0
 4a8:	a019                	j	4ae <memcmp+0x30>
      return *p1 - *p2;
 4aa:	40e7853b          	subw	a0,a5,a4
}
 4ae:	6422                	ld	s0,8(sp)
 4b0:	0141                	addi	sp,sp,16
 4b2:	8082                	ret
  return 0;
 4b4:	4501                	li	a0,0
 4b6:	bfe5                	j	4ae <memcmp+0x30>

00000000000004b8 <memcpy>:

void *
memcpy(void *dst, const void *src, uint n)
{
 4b8:	1141                	addi	sp,sp,-16
 4ba:	e406                	sd	ra,8(sp)
 4bc:	e022                	sd	s0,0(sp)
 4be:	0800                	addi	s0,sp,16
  return memmove(dst, src, n);
 4c0:	00000097          	auipc	ra,0x0
 4c4:	f66080e7          	jalr	-154(ra) # 426 <memmove>
}
 4c8:	60a2                	ld	ra,8(sp)
 4ca:	6402                	ld	s0,0(sp)
 4cc:	0141                	addi	sp,sp,16
 4ce:	8082                	ret

00000000000004d0 <fork>:
# generated by usys.pl - do not edit
#include "kernel/syscall.h"
.global fork
fork:
 li a7, SYS_fork
 4d0:	4885                	li	a7,1
 ecall
 4d2:	00000073          	ecall
 ret
 4d6:	8082                	ret

00000000000004d8 <exit>:
.global exit
exit:
 li a7, SYS_exit
 4d8:	4889                	li	a7,2
 ecall
 4da:	00000073          	ecall
 ret
 4de:	8082                	ret

00000000000004e0 <wait>:
.global wait
wait:
 li a7, SYS_wait
 4e0:	488d                	li	a7,3
 ecall
 4e2:	00000073          	ecall
 ret
 4e6:	8082                	ret

00000000000004e8 <pipe>:
.global pipe
pipe:
 li a7, SYS_pipe
 4e8:	4891                	li	a7,4
 ecall
 4ea:	00000073          	ecall
 ret
 4ee:	8082                	ret

00000000000004f0 <read>:
.global read
read:
 li a7, SYS_read
 4f0:	4895                	li	a7,5
 ecall
 4f2:	00000073          	ecall
 ret
 4f6:	8082                	ret

00000000000004f8 <write>:
.global write
write:
 li a7, SYS_write
 4f8:	48c1                	li	a7,16
 ecall
 4fa:	00000073          	ecall
 ret
 4fe:	8082                	ret

0000000000000500 <close>:
.global close
close:
 li a7, SYS_close
 500:	48d5                	li	a7,21
 ecall
 502:	00000073          	ecall
 ret
 506:	8082                	ret

0000000000000508 <kill>:
.global kill
kill:
 li a7, SYS_kill
 508:	4899                	li	a7,6
 ecall
 50a:	00000073          	ecall
 ret
 50e:	8082                	ret

0000000000000510 <exec>:
.global exec
exec:
 li a7, SYS_exec
 510:	489d                	li	a7,7
 ecall
 512:	00000073          	ecall
 ret
 516:	8082                	ret

0000000000000518 <open>:
.global open
open:
 li a7, SYS_open
 518:	48bd                	li	a7,15
 ecall
 51a:	00000073          	ecall
 ret
 51e:	8082                	ret

0000000000000520 <mknod>:
.global mknod
mknod:
 li a7, SYS_mknod
 520:	48c5                	li	a7,17
 ecall
 522:	00000073          	ecall
 ret
 526:	8082                	ret

0000000000000528 <unlink>:
.global unlink
unlink:
 li a7, SYS_unlink
 528:	48c9                	li	a7,18
 ecall
 52a:	00000073          	ecall
 ret
 52e:	8082                	ret

0000000000000530 <fstat>:
.global fstat
fstat:
 li a7, SYS_fstat
 530:	48a1                	li	a7,8
 ecall
 532:	00000073          	ecall
 ret
 536:	8082                	ret

0000000000000538 <link>:
.global link
link:
 li a7, SYS_link
 538:	48cd                	li	a7,19
 ecall
 53a:	00000073          	ecall
 ret
 53e:	8082                	ret

0000000000000540 <mkdir>:
.global mkdir
mkdir:
 li a7, SYS_mkdir
 540:	48d1                	li	a7,20
 ecall
 542:	00000073          	ecall
 ret
 546:	8082                	ret

0000000000000548 <chdir>:
.global chdir
chdir:
 li a7, SYS_chdir
 548:	48a5                	li	a7,9
 ecall
 54a:	00000073          	ecall
 ret
 54e:	8082                	ret

0000000000000550 <dup>:
.global dup
dup:
 li a7, SYS_dup
 550:	48a9                	li	a7,10
 ecall
 552:	00000073          	ecall
 ret
 556:	8082                	ret

0000000000000558 <getpid>:
.global getpid
getpid:
 li a7, SYS_getpid
 558:	48ad                	li	a7,11
 ecall
 55a:	00000073          	ecall
 ret
 55e:	8082                	ret

0000000000000560 <sbrk>:
.global sbrk
sbrk:
 li a7, SYS_sbrk
 560:	48b1                	li	a7,12
 ecall
 562:	00000073          	ecall
 ret
 566:	8082                	ret

0000000000000568 <sleep>:
.global sleep
sleep:
 li a7, SYS_sleep
 568:	48b5                	li	a7,13
 ecall
 56a:	00000073          	ecall
 ret
 56e:	8082                	ret

0000000000000570 <uptime>:
.global uptime
uptime:
 li a7, SYS_uptime
 570:	48b9                	li	a7,14
 ecall
 572:	00000073          	ecall
 ret
 576:	8082                	ret

0000000000000578 <getmem>:
.global getmem
getmem:
 li a7, SYS_getmem
 578:	48d9                	li	a7,22
 ecall
 57a:	00000073          	ecall
 ret
 57e:	8082                	ret

0000000000000580 <getstate>:
.global getstate
getstate:
 li a7, SYS_getstate
 580:	48dd                	li	a7,23
 ecall
 582:	00000073          	ecall
 ret
 586:	8082                	ret

0000000000000588 <getparentpid>:
.global getparentpid
getparentpid:
 li a7, SYS_getparentpid
 588:	48e1                	li	a7,24
 ecall
 58a:	00000073          	ecall
 ret
 58e:	8082                	ret

0000000000000590 <getkstack>:
.global getkstack
getkstack:
 li a7, SYS_getkstack
 590:	48e5                	li	a7,25
 ecall
 592:	00000073          	ecall
 ret
 596:	8082                	ret

0000000000000598 <getpri>:
.global getpri
getpri:
 li a7, SYS_getpri
 598:	48e9                	li	a7,26
 ecall
 59a:	00000073          	ecall
 ret
 59e:	8082                	ret

00000000000005a0 <setpri>:
.global setpri
setpri:
 li a7, SYS_setpri
 5a0:	48ed                	li	a7,27
 ecall
 5a2:	00000073          	ecall
 ret
 5a6:	8082                	ret
